target datalayout = "e-m:e-p270:32:32-p271:32:32-p272:64:64-i64:64-i128:128-f80:128-n8:16:32:64-S128"
target triple = "x86_64-pc-linux-gnu"

%struct.test_fixture = type { ptr, ptr }
%struct.ossl_cmp_ctx_st = type { ptr, ptr, ptr, i32, ptr, ptr, ptr, ptr, ptr, i32, ptr, ptr, i32, i32, i32, i32, i64, ptr, ptr, i32, i32, ptr, ptr, ptr, ptr, ptr, i32, i32, i32, ptr, ptr, ptr, ptr, ptr, i64, ptr, i32, i32, ptr, ptr, ptr, ptr, ptr, ptr, ptr, ptr, i32, i32, ptr, ptr, i32, ptr, ptr, i32, ptr, ptr, i32, i32, ptr, ptr, i32, i32, ptr, ptr, i32, ptr, i32, ptr, i32, ptr, ptr, ptr, ptr, ptr, ptr }

@.str = private unnamed_addr constant [31 x i8] c"../openssl/test/cmp_ctx_test.c\00", align 1
@.str.3 = private unnamed_addr constant [16 x i8] c"test_CTX_reinit\00", align 1
@.str.58 = private unnamed_addr constant [24 x i8] c"certs = sk_X509_new_1()\00", align 1
@.str.59 = private unnamed_addr constant [32 x i8] c"bytes = ASN1_OCTET_STRING_new()\00", align 1
@.str.60 = private unnamed_addr constant [25 x i8] c"OSSL_CMP_CTX_reinit(ctx)\00", align 1

; Function Attrs: inlinehint nounwind uwtable
define internal ptr @ossl_check_X509_type(ptr noundef %0) #3 {
  %2 = alloca ptr, align 8
  store ptr %0, ptr %2, align 8, !tbaa !24
  %3 = load ptr, ptr %2, align 8, !tbaa !24
  ret ptr %3
}

; Function Attrs: inlinehint nounwind uwtable
define internal ptr @ossl_check_X509_sk_type(ptr noundef %0) #3 {
  %2 = alloca ptr, align 8
  store ptr %0, ptr %2, align 8, !tbaa !22
  %3 = load ptr, ptr %2, align 8, !tbaa !22
  ret ptr %3
}

; Function Attrs: nounwind uwtable
define internal void @sk_X509_pop_X509_free(ptr noundef %0) #0 {
  %2 = alloca ptr, align 8
  store ptr %0, ptr %2, align 8, !tbaa !22
  %3 = load ptr, ptr %2, align 8, !tbaa !22
  call void @OSSL_STACK_OF_X509_free(ptr noundef %3)
  ret void
}

; Function Attrs: nounwind uwtable
define internal ptr @sk_X509_new_1() #0 {
  %1 = alloca ptr, align 8
  %2 = alloca ptr, align 8
  call void @llvm.lifetime.start.p0(i64 8, ptr %1) #5
  %3 = call ptr @OPENSSL_sk_new_null()
  store ptr %3, ptr %1, align 8, !tbaa !22
  call void @llvm.lifetime.start.p0(i64 8, ptr %2) #5
  %4 = call ptr @X509_new()
  store ptr %4, ptr %2, align 8, !tbaa !24
  %5 = load ptr, ptr %2, align 8, !tbaa !24
  %6 = icmp eq ptr %5, null
  br i1 %6, label %14, label %7

7:                                                ; preds = %0
  %8 = load ptr, ptr %1, align 8, !tbaa !22
  %9 = call ptr @ossl_check_X509_sk_type(ptr noundef %8)
  %10 = load ptr, ptr %2, align 8, !tbaa !24
  %11 = call ptr @ossl_check_X509_type(ptr noundef %10)
  %12 = call i32 @OPENSSL_sk_push(ptr noundef %9, ptr noundef %11)
  %13 = icmp ne i32 %12, 0
  br i1 %13, label %18, label %14

14:                                               ; preds = %7, %0
  %15 = load ptr, ptr %1, align 8, !tbaa !22
  %16 = call ptr @ossl_check_X509_sk_type(ptr noundef %15)
  call void @OPENSSL_sk_free(ptr noundef %16)
  %17 = load ptr, ptr %2, align 8, !tbaa !24
  call void @X509_free(ptr noundef %17)
  store ptr null, ptr %1, align 8, !tbaa !22
  br label %18

18:                                               ; preds = %14, %7
  %19 = load ptr, ptr %1, align 8, !tbaa !22
  call void @llvm.lifetime.end.p0(i64 8, ptr %2) #5
  call void @llvm.lifetime.end.p0(i64 8, ptr %1) #5
  ret ptr %19
}

; Function Attrs: nounwind uwtable
define internal void @tear_down(ptr noundef %0) #0 {
  %2 = alloca ptr, align 8
  store ptr %0, ptr %2, align 8, !tbaa !15
  %3 = load ptr, ptr %2, align 8, !tbaa !15
  %4 = icmp ne ptr %3, null
  br i1 %4, label %5, label %9

5:                                                ; preds = %1
  %6 = load ptr, ptr %2, align 8, !tbaa !15
  %7 = getelementptr inbounds nuw %struct.test_fixture, ptr %6, i32 0, i32 1
  %8 = load ptr, ptr %7, align 8, !tbaa !17
  call void @OSSL_CMP_CTX_free(ptr noundef %8)
  br label %9

9:                                                ; preds = %5, %1
  %10 = load ptr, ptr %2, align 8, !tbaa !15
  call void @CRYPTO_free(ptr noundef %10, ptr noundef @.str, i32 noundef 25)
  ret void
}

; Function Attrs: nounwind uwtable
define internal i32 @execute_CTX_reinit_test(ptr noundef %0) #0 {
  %2 = alloca ptr, align 8
  %3 = alloca ptr, align 8
  %4 = alloca ptr, align 8
  %5 = alloca ptr, align 8
  %6 = alloca ptr, align 8
  %7 = alloca i32, align 4
  store ptr %0, ptr %2, align 8, !tbaa !15
  call void @llvm.lifetime.start.p0(i64 8, ptr %3) #5
  %8 = load ptr, ptr %2, align 8, !tbaa !15
  %9 = getelementptr inbounds nuw %struct.test_fixture, ptr %8, i32 0, i32 1
  %10 = load ptr, ptr %9, align 8, !tbaa !17
  store ptr %10, ptr %3, align 8, !tbaa !11
  call void @llvm.lifetime.start.p0(i64 8, ptr %4) #5
  store ptr null, ptr %4, align 8, !tbaa !20
  call void @llvm.lifetime.start.p0(i64 8, ptr %5) #5
  store ptr null, ptr %5, align 8, !tbaa !22
  call void @llvm.lifetime.start.p0(i64 8, ptr %6) #5
  %11 = call ptr @X509_new()
  store ptr %11, ptr %6, align 8, !tbaa !24
  call void @llvm.lifetime.start.p0(i64 4, ptr %7) #5
  store i32 0, ptr %7, align 4, !tbaa !13
  %12 = load ptr, ptr %3, align 8, !tbaa !11
  %13 = getelementptr inbounds nuw %struct.ossl_cmp_ctx_st, ptr %12, i32 0, i32 66
  store i32 1, ptr %13, align 8, !tbaa !26
  %14 = load ptr, ptr %3, align 8, !tbaa !11
  %15 = getelementptr inbounds nuw %struct.ossl_cmp_ctx_st, ptr %14, i32 0, i32 68
  store i32 1, ptr %15, align 8, !tbaa !40
  %16 = load ptr, ptr %3, align 8, !tbaa !11
  %17 = call ptr @OPENSSL_sk_new_null()
  %18 = call i32 @ossl_cmp_ctx_set0_statusString(ptr noundef %16, ptr noundef %17)
  %19 = icmp ne i32 %18, 0
  br i1 %19, label %20, label %68

20:                                               ; preds = %1
  %21 = load ptr, ptr %3, align 8, !tbaa !11
  %22 = call ptr @X509_new()
  %23 = call i32 @ossl_cmp_ctx_set0_newCert(ptr noundef %21, ptr noundef %22)
  %24 = icmp ne i32 %23, 0
  br i1 %24, label %25, label %68

25:                                               ; preds = %20
  %26 = call ptr @sk_X509_new_1()
  store ptr %26, ptr %5, align 8, !tbaa !22
  %27 = call i32 @test_ptr(ptr noundef @.str, i32 noundef 73, ptr noundef @.str.58, ptr noundef %26)
  %28 = icmp ne i32 %27, 0
  br i1 %28, label %29, label %68

29:                                               ; preds = %25
  %30 = load ptr, ptr %3, align 8, !tbaa !11
  %31 = load ptr, ptr %5, align 8, !tbaa !22
  %32 = call i32 @ossl_cmp_ctx_set1_newChain(ptr noundef %30, ptr noundef %31)
  %33 = icmp ne i32 %32, 0
  br i1 %33, label %34, label %68

34:                                               ; preds = %29
  %35 = load ptr, ptr %3, align 8, !tbaa !11
  %36 = load ptr, ptr %5, align 8, !tbaa !22
  %37 = call i32 @ossl_cmp_ctx_set1_caPubs(ptr noundef %35, ptr noundef %36)
  %38 = icmp ne i32 %37, 0
  br i1 %38, label %39, label %68

39:                                               ; preds = %34
  %40 = load ptr, ptr %3, align 8, !tbaa !11
  %41 = load ptr, ptr %5, align 8, !tbaa !22
  %42 = call i32 @ossl_cmp_ctx_set1_extraCertsIn(ptr noundef %40, ptr noundef %41)
  %43 = icmp ne i32 %42, 0
  br i1 %43, label %44, label %68

44:                                               ; preds = %39
  %45 = load ptr, ptr %3, align 8, !tbaa !11
  %46 = load ptr, ptr %6, align 8, !tbaa !24
  %47 = call i32 @ossl_cmp_ctx_set1_validatedSrvCert(ptr noundef %45, ptr noundef %46)
  %48 = icmp ne i32 %47, 0
  br i1 %48, label %49, label %68

49:                                               ; preds = %44
  %50 = call ptr @ASN1_OCTET_STRING_new()
  store ptr %50, ptr %4, align 8, !tbaa !20
  %51 = call i32 @test_ptr(ptr noundef @.str, i32 noundef 78, ptr noundef @.str.59, ptr noundef %50)
  %52 = icmp ne i32 %51, 0
  br i1 %52, label %53, label %68

53:                                               ; preds = %49
  %54 = load ptr, ptr %3, align 8, !tbaa !11
  %55 = load ptr, ptr %4, align 8, !tbaa !20
  %56 = call i32 @OSSL_CMP_CTX_set1_transactionID(ptr noundef %54, ptr noundef %55)
  %57 = icmp ne i32 %56, 0
  br i1 %57, label %58, label %68

58:                                               ; preds = %53
  %59 = load ptr, ptr %3, align 8, !tbaa !11
  %60 = load ptr, ptr %4, align 8, !tbaa !20
  %61 = call i32 @OSSL_CMP_CTX_set1_senderNonce(ptr noundef %59, ptr noundef %60)
  %62 = icmp ne i32 %61, 0
  br i1 %62, label %63, label %68

63:                                               ; preds = %58
  %64 = load ptr, ptr %3, align 8, !tbaa !11
  %65 = load ptr, ptr %4, align 8, !tbaa !20
  %66 = call i32 @ossl_cmp_ctx_set1_recipNonce(ptr noundef %64, ptr noundef %65)
  %67 = icmp ne i32 %66, 0
  br i1 %67, label %69, label %68

68:                                               ; preds = %63, %58, %53, %49, %44, %39, %34, %29, %25, %20, %1
  br label %141

69:                                               ; preds = %63
  %70 = load ptr, ptr %3, align 8, !tbaa !11
  %71 = call i32 @OSSL_CMP_CTX_reinit(ptr noundef %70)
  %72 = icmp ne i32 %71, 0
  %73 = zext i1 %72 to i32
  %74 = call i32 @test_true(ptr noundef @.str, i32 noundef 84, ptr noundef @.str.60, i32 noundef %73)
  %75 = icmp ne i32 %74, 0
  br i1 %75, label %77, label %76

76:                                               ; preds = %69
  br label %141

77:                                               ; preds = %69
  %78 = load ptr, ptr %3, align 8, !tbaa !11
  %79 = getelementptr inbounds nuw %struct.ossl_cmp_ctx_st, ptr %78, i32 0, i32 66
  %80 = load i32, ptr %79, align 8, !tbaa !26
  %81 = icmp eq i32 %80, -1
  br i1 %81, label %82, label %132

82:                                               ; preds = %77
  %83 = load ptr, ptr %3, align 8, !tbaa !11
  %84 = getelementptr inbounds nuw %struct.ossl_cmp_ctx_st, ptr %83, i32 0, i32 68
  %85 = load i32, ptr %84, align 8, !tbaa !40
  %86 = icmp eq i32 %85, -1
  br i1 %86, label %87, label %132

87:                                               ; preds = %82
  %88 = load ptr, ptr %3, align 8, !tbaa !11
  %89 = getelementptr inbounds nuw %struct.ossl_cmp_ctx_st, ptr %88, i32 0, i32 67
  %90 = load ptr, ptr %89, align 8, !tbaa !41
  %91 = icmp eq ptr %90, null
  br i1 %91, label %92, label %132

92:                                               ; preds = %87
  %93 = load ptr, ptr %3, align 8, !tbaa !11
  %94 = getelementptr inbounds nuw %struct.ossl_cmp_ctx_st, ptr %93, i32 0, i32 69
  %95 = load ptr, ptr %94, align 8, !tbaa !42
  %96 = icmp eq ptr %95, null
  br i1 %96, label %97, label %132

97:                                               ; preds = %92
  %98 = load ptr, ptr %3, align 8, !tbaa !11
  %99 = getelementptr inbounds nuw %struct.ossl_cmp_ctx_st, ptr %98, i32 0, i32 70
  %100 = load ptr, ptr %99, align 8, !tbaa !43
  %101 = icmp eq ptr %100, null
  br i1 %101, label %102, label %132

102:                                              ; preds = %97
  %103 = load ptr, ptr %3, align 8, !tbaa !11
  %104 = getelementptr inbounds nuw %struct.ossl_cmp_ctx_st, ptr %103, i32 0, i32 71
  %105 = load ptr, ptr %104, align 8, !tbaa !44
  %106 = icmp eq ptr %105, null
  br i1 %106, label %107, label %132

107:                                              ; preds = %102
  %108 = load ptr, ptr %3, align 8, !tbaa !11
  %109 = getelementptr inbounds nuw %struct.ossl_cmp_ctx_st, ptr %108, i32 0, i32 72
  %110 = load ptr, ptr %109, align 8, !tbaa !45
  %111 = icmp eq ptr %110, null
  br i1 %111, label %112, label %132

112:                                              ; preds = %107
  %113 = load ptr, ptr %3, align 8, !tbaa !11
  %114 = getelementptr inbounds nuw %struct.ossl_cmp_ctx_st, ptr %113, i32 0, i32 22
  %115 = load ptr, ptr %114, align 8, !tbaa !46
  %116 = icmp eq ptr %115, null
  br i1 %116, label %117, label %132

117:                                              ; preds = %112
  %118 = load ptr, ptr %3, align 8, !tbaa !11
  %119 = getelementptr inbounds nuw %struct.ossl_cmp_ctx_st, ptr %118, i32 0, i32 40
  %120 = load ptr, ptr %119, align 8, !tbaa !47
  %121 = icmp eq ptr %120, null
  br i1 %121, label %122, label %132

122:                                              ; preds = %117
  %123 = load ptr, ptr %3, align 8, !tbaa !11
  %124 = getelementptr inbounds nuw %struct.ossl_cmp_ctx_st, ptr %123, i32 0, i32 41
  %125 = load ptr, ptr %124, align 8, !tbaa !48
  %126 = icmp eq ptr %125, null
  br i1 %126, label %127, label %132

127:                                              ; preds = %122
  %128 = load ptr, ptr %3, align 8, !tbaa !11
  %129 = getelementptr inbounds nuw %struct.ossl_cmp_ctx_st, ptr %128, i32 0, i32 42
  %130 = load ptr, ptr %129, align 8, !tbaa !49
  %131 = icmp eq ptr %130, null
  br label %132

132:                                              ; preds = %127, %122, %117, %112, %107, %102, %97, %92, %87, %82, %77
  %133 = phi i1 [ false, %122 ], [ false, %117 ], [ false, %112 ], [ false, %107 ], [ false, %102 ], [ false, %97 ], [ false, %92 ], [ false, %87 ], [ false, %82 ], [ false, %77 ], [ %131, %127 ]
  %134 = zext i1 %133 to i32
  %135 = icmp ne i32 %134, 0
  %136 = zext i1 %135 to i32
  %137 = call i32 @test_true(ptr noundef @.str, i32 noundef 98, ptr noundef @.str.61, i32 noundef %136)
  %138 = icmp ne i32 %137, 0
  br i1 %138, label %140, label %139

139:                                              ; preds = %132
  br label %141

140:                                              ; preds = %132
  store i32 1, ptr %7, align 4, !tbaa !13
  br label %141

141:                                              ; preds = %140, %139, %76, %68
  %142 = load ptr, ptr %6, align 8, !tbaa !24
  call void @X509_free(ptr noundef %142)
  %143 = load ptr, ptr %5, align 8, !tbaa !22
  call void @sk_X509_pop_X509_free(ptr noundef %143)
  %144 = load ptr, ptr %4, align 8, !tbaa !20
  call void @ASN1_OCTET_STRING_free(ptr noundef %144)
  %145 = load i32, ptr %7, align 4, !tbaa !13
  call void @llvm.lifetime.end.p0(i64 4, ptr %7) #5
  call void @llvm.lifetime.end.p0(i64 8, ptr %6) #5
  call void @llvm.lifetime.end.p0(i64 8, ptr %5) #5
  call void @llvm.lifetime.end.p0(i64 8, ptr %4) #5
  call void @llvm.lifetime.end.p0(i64 8, ptr %3) #5
  ret i32 %145
}

; Function Attrs: nounwind uwtable
define internal i32 @test_CTX_reinit() #0 {
  %1 = alloca i32, align 4
  %2 = alloca ptr, align 8
  %3 = alloca i32, align 4
  %4 = alloca i32, align 4
  call void @llvm.lifetime.start.p0(i64 8, ptr %2) #5
  %5 = call ptr @set_up(ptr noundef @.str.3)
  store ptr %5, ptr %2, align 8, !tbaa !15
  call void @llvm.lifetime.start.p0(i64 4, ptr %3) #5
  store i32 0, ptr %3, align 4, !tbaa !13
  %6 = load ptr, ptr %2, align 8, !tbaa !15
  %7 = icmp eq ptr %6, null
  br i1 %7, label %8, label %9

8:                                                ; preds = %0
  store i32 0, ptr %1, align 4
  store i32 1, ptr %4, align 4
  br label %18

9:                                                ; preds = %0
  %10 = load ptr, ptr %2, align 8, !tbaa !15
  %11 = icmp ne ptr %10, null
  br i1 %11, label %12, label %16

12:                                               ; preds = %9
  %13 = load ptr, ptr %2, align 8, !tbaa !15
  %14 = call i32 @execute_CTX_reinit_test(ptr noundef %13)
  store i32 %14, ptr %3, align 4, !tbaa !13
  %15 = load ptr, ptr %2, align 8, !tbaa !15
  call void @tear_down(ptr noundef %15)
  br label %16

16:                                               ; preds = %12, %9
  %17 = load i32, ptr %3, align 4, !tbaa !13
  store i32 %17, ptr %1, align 4
  store i32 1, ptr %4, align 4
  br label %18

18:                                               ; preds = %16, %8
  call void @llvm.lifetime.end.p0(i64 4, ptr %3) #5
  call void @llvm.lifetime.end.p0(i64 8, ptr %2) #5
  %19 = load i32, ptr %1, align 4
  ret i32 %19
}