; Function Attrs: nounwind uwtable
define internal range(i32 0, 2) i32 @test_CTX_reinit() #1 {
  %1 = tail call fastcc ptr @set_up(ptr noundef nonnull @.str.3)
  %2 = icmp eq ptr %1, null
  br i1 %2, label %90, label %3

3:                                                ; preds = %0
  %4 = getelementptr i8, ptr %1, i64 8
  %.val = load ptr, ptr %4, align 8, !tbaa !4
  %5 = tail call ptr @X509_new() #6
  %6 = getelementptr inbounds nuw i8, ptr %.val, i64 464
  store i32 1, ptr %6, align 8, !tbaa !11
  %7 = getelementptr inbounds nuw i8, ptr %.val, i64 480
  store i32 1, ptr %7, align 8, !tbaa !30
  %8 = tail call ptr @OPENSSL_sk_new_null() #6
  %9 = tail call i32 @ossl_cmp_ctx_set0_statusString(ptr noundef %.val, ptr noundef %8) #6
  %.not.i = icmp eq i32 %9, 0
  br i1 %.not.i, label %tear_down.exit, label %10

10:                                               ; preds = %3
  %11 = tail call ptr @X509_new() #6
  %12 = tail call i32 @ossl_cmp_ctx_set0_newCert(ptr noundef nonnull %.val, ptr noundef %11) #6
  %.not36.i = icmp eq i32 %12, 0
  br i1 %.not36.i, label %tear_down.exit, label %13

13:                                               ; preds = %10
  %14 = tail call ptr @OPENSSL_sk_new_null() #6
  %15 = tail call ptr @X509_new() #6
  %16 = icmp eq ptr %15, null
  br i1 %16, label %19, label %17

17:                                               ; preds = %13
  %18 = tail call i32 @OPENSSL_sk_push(ptr noundef %14, ptr noundef nonnull %15) #6
  %.not.i.i = icmp eq i32 %18, 0
  br i1 %.not.i.i, label %19, label %sk_X509_new_1.exit.i

19:                                               ; preds = %17, %13
  tail call void @OPENSSL_sk_free(ptr noundef %14) #6
  tail call void @X509_free(ptr noundef %15) #6
  br label %sk_X509_new_1.exit.i

sk_X509_new_1.exit.i:                             ; preds = %19, %17
  %.0.i.i = phi ptr [ null, %19 ], [ %14, %17 ]
  %20 = tail call i32 @test_ptr(ptr noundef nonnull @.str, i32 noundef 73, ptr noundef nonnull @.str.58, ptr noundef %.0.i.i) #6
  %.not37.i = icmp eq i32 %20, 0
  br i1 %.not37.i, label %tear_down.exit, label %21

21:                                               ; preds = %sk_X509_new_1.exit.i
  %22 = tail call i32 @ossl_cmp_ctx_set1_newChain(ptr noundef nonnull %.val, ptr noundef %.0.i.i) #6
  %.not38.i = icmp eq i32 %22, 0
  br i1 %.not38.i, label %tear_down.exit, label %23

23:                                               ; preds = %21
  %24 = tail call i32 @ossl_cmp_ctx_set1_caPubs(ptr noundef nonnull %.val, ptr noundef %.0.i.i) #6
  %.not39.i = icmp eq i32 %24, 0
  br i1 %.not39.i, label %tear_down.exit, label %25

25:                                               ; preds = %23
  %26 = tail call i32 @ossl_cmp_ctx_set1_extraCertsIn(ptr noundef nonnull %.val, ptr noundef %.0.i.i) #6
  %.not40.i = icmp eq i32 %26, 0
  br i1 %.not40.i, label %tear_down.exit, label %27

27:                                               ; preds = %25
  %28 = tail call i32 @ossl_cmp_ctx_set1_validatedSrvCert(ptr noundef nonnull %.val, ptr noundef %5) #6
  %.not41.i = icmp eq i32 %28, 0
  br i1 %.not41.i, label %tear_down.exit, label %29

29:                                               ; preds = %27
  %30 = tail call ptr @ASN1_OCTET_STRING_new() #6
  %31 = tail call i32 @test_ptr(ptr noundef nonnull @.str, i32 noundef 78, ptr noundef nonnull @.str.59, ptr noundef %30) #6
  %.not42.i = icmp eq i32 %31, 0
  br i1 %.not42.i, label %tear_down.exit, label %32

32:                                               ; preds = %29
  %33 = tail call i32 @OSSL_CMP_CTX_set1_transactionID(ptr noundef nonnull %.val, ptr noundef %30) #6
  %.not43.i = icmp eq i32 %33, 0
  br i1 %.not43.i, label %tear_down.exit, label %34

34:                                               ; preds = %32
  %35 = tail call i32 @OSSL_CMP_CTX_set1_senderNonce(ptr noundef nonnull %.val, ptr noundef %30) #6
  %.not44.i = icmp eq i32 %35, 0
  br i1 %.not44.i, label %tear_down.exit, label %36

36:                                               ; preds = %34
  %37 = tail call i32 @ossl_cmp_ctx_set1_recipNonce(ptr noundef nonnull %.val, ptr noundef %30) #6
  %.not45.i = icmp eq i32 %37, 0
  br i1 %.not45.i, label %tear_down.exit, label %38

38:                                               ; preds = %36
  %39 = tail call i32 @OSSL_CMP_CTX_reinit(ptr noundef nonnull %.val) #6
  %40 = icmp ne i32 %39, 0
  %41 = zext i1 %40 to i32
  %42 = tail call i32 @test_true(ptr noundef nonnull @.str, i32 noundef 84, ptr noundef nonnull @.str.60, i32 noundef %41) #6
  %.not46.i = icmp eq i32 %42, 0
  br i1 %.not46.i, label %tear_down.exit, label %43

43:                                               ; preds = %38
  %44 = load i32, ptr %6, align 8, !tbaa !11
  %45 = icmp eq i32 %44, -1
  br i1 %45, label %46, label %86

46:                                               ; preds = %43
  %47 = load i32, ptr %7, align 8, !tbaa !30
  %48 = icmp eq i32 %47, -1
  br i1 %48, label %49, label %86

49:                                               ; preds = %46
  %50 = getelementptr inbounds nuw i8, ptr %.val, i64 472
  %51 = load ptr, ptr %50, align 8, !tbaa !31
  %52 = icmp eq ptr %51, null
  br i1 %52, label %53, label %86

53:                                               ; preds = %49
  %54 = getelementptr inbounds nuw i8, ptr %.val, i64 488
  %55 = load ptr, ptr %54, align 8, !tbaa !32
  %56 = icmp eq ptr %55, null
  br i1 %56, label %57, label %86

57:                                               ; preds = %53
  %58 = getelementptr inbounds nuw i8, ptr %.val, i64 496
  %59 = load ptr, ptr %58, align 8, !tbaa !33
  %60 = icmp eq ptr %59, null
  br i1 %60, label %61, label %86

61:                                               ; preds = %57
  %62 = getelementptr inbounds nuw i8, ptr %.val, i64 504
  %63 = load ptr, ptr %62, align 8, !tbaa !34
  %64 = icmp eq ptr %63, null
  br i1 %64, label %65, label %86

65:                                               ; preds = %61
  %66 = getelementptr inbounds nuw i8, ptr %.val, i64 512
  %67 = load ptr, ptr %66, align 8, !tbaa !35
  %68 = icmp eq ptr %67, null
  br i1 %68, label %69, label %86

69:                                               ; preds = %65
  %70 = getelementptr inbounds nuw i8, ptr %.val, i64 152
  %71 = load ptr, ptr %70, align 8, !tbaa !36
  %72 = icmp eq ptr %71, null
  br i1 %72, label %73, label %86

73:                                               ; preds = %69
  %74 = getelementptr inbounds nuw i8, ptr %.val, i64 280
  %75 = load ptr, ptr %74, align 8, !tbaa !37
  %76 = icmp eq ptr %75, null
  br i1 %76, label %77, label %86

77:                                               ; preds = %73
  %78 = getelementptr inbounds nuw i8, ptr %.val, i64 288
  %79 = load ptr, ptr %78, align 8, !tbaa !38
  %80 = icmp eq ptr %79, null
  br i1 %80, label %81, label %86

81:                                               ; preds = %77
  %82 = getelementptr inbounds nuw i8, ptr %.val, i64 296
  %83 = load ptr, ptr %82, align 8, !tbaa !39
  %84 = icmp eq ptr %83, null
  %85 = zext i1 %84 to i32
  br label %86

86:                                               ; preds = %81, %77, %73, %69, %65, %61, %57, %53, %49, %46, %43
  %87 = phi i32 [ 0, %77 ], [ 0, %73 ], [ 0, %69 ], [ 0, %65 ], [ 0, %61 ], [ 0, %57 ], [ 0, %53 ], [ 0, %49 ], [ 0, %46 ], [ 0, %43 ], [ %85, %81 ]
  %88 = tail call i32 @test_true(ptr noundef nonnull @.str, i32 noundef 98, ptr noundef nonnull @.str.61, i32 noundef %87) #6
  %.not47.i = icmp ne i32 %88, 0
  %spec.select.i = zext i1 %.not47.i to i32
  br label %tear_down.exit

tear_down.exit:                                   ; preds = %3, %10, %sk_X509_new_1.exit.i, %21, %23, %25, %27, %29, %32, %34, %36, %38, %86
  %.035.i = phi ptr [ %.0.i.i, %38 ], [ %.0.i.i, %36 ], [ %.0.i.i, %34 ], [ %.0.i.i, %32 ], [ %.0.i.i, %29 ], [ %.0.i.i, %27 ], [ %.0.i.i, %25 ], [ %.0.i.i, %23 ], [ %.0.i.i, %21 ], [ %.0.i.i, %sk_X509_new_1.exit.i ], [ null, %10 ], [ null, %3 ], [ %.0.i.i, %86 ]
  %.034.i = phi ptr [ %30, %38 ], [ %30, %36 ], [ %30, %34 ], [ %30, %32 ], [ %30, %29 ], [ null, %27 ], [ null, %25 ], [ null, %23 ], [ null, %21 ], [ null, %sk_X509_new_1.exit.i ], [ null, %10 ], [ null, %3 ], [ %30, %86 ]
  %.0.i = phi i32 [ 0, %38 ], [ 0, %36 ], [ 0, %34 ], [ 0, %32 ], [ 0, %29 ], [ 0, %27 ], [ 0, %25 ], [ 0, %23 ], [ 0, %21 ], [ 0, %sk_X509_new_1.exit.i ], [ 0, %10 ], [ 0, %3 ], [ %spec.select.i, %86 ]
  tail call void @X509_free(ptr noundef %5) #6
  tail call void @OSSL_STACK_OF_X509_free(ptr noundef %.035.i) #6
  tail call void @ASN1_OCTET_STRING_free(ptr noundef %.034.i) #6
  %89 = load ptr, ptr %4, align 8, !tbaa !4
  tail call void @OSSL_CMP_CTX_free(ptr noundef %89) #6
  tail call void @CRYPTO_free(ptr noundef nonnull %1, ptr noundef nonnull @.str, i32 noundef 25) #6
  br label %90

90:                                               ; preds = %0, %tear_down.exit
  %.05 = phi i32 [ %.0.i, %tear_down.exit ], [ 0, %0 ]
  ret i32 %.05
}